target datalayout = "e-m:e-p270:32:32-p271:32:32-p272:64:64-i64:64-i128:128-f80:128-n8:16:32:64-S128"
target triple = "x86_64-pc-linux-gnu"

%struct.lua_State = type { i8, i8, i8, i8, i8, i8, i8, ptr, ptr, ptr, ptr, ptr, ptr, ptr, ptr, i32, i32, i16, i16, i32, ptr, ptr, ptr, ptr, ptr }
%struct.CallInfo = type { ptr, ptr, ptr, ptr, i32, i32 }
%struct.Proto = type { i8, i8, i8, i8, i8, i8, i8, i8, ptr, ptr, ptr, ptr, ptr, i64, ptr, ptr, ptr, ptr, ptr, ptr, ptr, ptr, ptr, ptr, i32, i32, i32, i32, i32, i32, i32, i32, i32, i32 }
%struct.lua_TValue = type { %union.Value, [1 x i32], i32 }
%union.Value = type { ptr }
%struct.Closure = type { i8, i8, i8, i8, i8, i8, i8, ptr, ptr, %union.anon.0 }
%union.anon.0 = type { %struct.anon }
%struct.anon = type { ptr, ptr, ptr, [1 x %struct.lua_TValue] }
%struct.anon.1 = type { ptr, [1 x %struct.lua_TValue] }
%struct.LocVar = type { ptr, i32, i32, i8 }
%struct.TString = type { i8, i8, i8, i16, ptr, i32, i32, [1 x i8] }

; Function Attrs: mustprogress nounwind uwtable
define internal noundef i32 @_ZL9currentpcP9lua_StateP8CallInfo(ptr noundef %0, ptr noundef %1) #2 {
  %3 = alloca ptr, align 8
  %4 = alloca ptr, align 8
  store ptr %0, ptr %3, align 8, !tbaa !4
  store ptr %1, ptr %4, align 8, !tbaa !23
  %5 = load ptr, ptr %4, align 8, !tbaa !23
  %6 = getelementptr inbounds nuw %struct.CallInfo, ptr %5, i32 0, i32 3
  %7 = load ptr, ptr %6, align 8, !tbaa !50
  %8 = icmp ne ptr %7, null
  br i1 %8, label %9, label %29

9:                                                ; preds = %2
  %10 = load ptr, ptr %4, align 8, !tbaa !23
  %11 = getelementptr inbounds nuw %struct.CallInfo, ptr %10, i32 0, i32 3
  %12 = load ptr, ptr %11, align 8, !tbaa !50
  %13 = load ptr, ptr %4, align 8, !tbaa !23
  %14 = getelementptr inbounds nuw %struct.CallInfo, ptr %13, i32 0, i32 1
  %15 = load ptr, ptr %14, align 8, !tbaa !40
  %16 = getelementptr inbounds nuw %struct.lua_TValue, ptr %15, i32 0, i32 0
  %17 = load ptr, ptr %16, align 8, !tbaa !37
  %18 = getelementptr inbounds nuw %struct.Closure, ptr %17, i32 0, i32 9
  %19 = getelementptr inbounds nuw %struct.anon.1, ptr %18, i32 0, i32 0
  %20 = load ptr, ptr %19, align 8, !tbaa !37
  %21 = getelementptr inbounds nuw %struct.Proto, ptr %20, i32 0, i32 9
  %22 = load ptr, ptr %21, align 8, !tbaa !51
  %23 = ptrtoint ptr %12 to i64
  %24 = ptrtoint ptr %22 to i64
  %25 = sub i64 %23, %24
  %26 = sdiv exact i64 %25, 4
  %27 = trunc i64 %26 to i32
  %28 = sub nsw i32 %27, 1
  br label %30

29:                                               ; preds = %2
  br label %30

30:                                               ; preds = %29, %9
  %31 = phi i32 [ %28, %9 ], [ 0, %29 ]
  ret i32 %31
}

; Function Attrs: mustprogress nounwind uwtable
define internal noundef ptr @_ZL11getluaprotoP8CallInfo(ptr noundef %0) #2 {
  %2 = alloca ptr, align 8
  store ptr %0, ptr %2, align 8, !tbaa !23
  %3 = load ptr, ptr %2, align 8, !tbaa !23
  %4 = getelementptr inbounds nuw %struct.CallInfo, ptr %3, i32 0, i32 1
  %5 = load ptr, ptr %4, align 8, !tbaa !40
  %6 = getelementptr inbounds nuw %struct.lua_TValue, ptr %5, i32 0, i32 2
  %7 = load i32, ptr %6, align 4, !tbaa !41
  %8 = icmp eq i32 %7, 7
  br i1 %8, label %9, label %27

9:                                                ; preds = %1
  %10 = load ptr, ptr %2, align 8, !tbaa !23
  %11 = getelementptr inbounds nuw %struct.CallInfo, ptr %10, i32 0, i32 1
  %12 = load ptr, ptr %11, align 8, !tbaa !40
  %13 = getelementptr inbounds nuw %struct.lua_TValue, ptr %12, i32 0, i32 0
  %14 = load ptr, ptr %13, align 8, !tbaa !37
  %15 = getelementptr inbounds nuw %struct.Closure, ptr %14, i32 0, i32 3
  %16 = load i8, ptr %15, align 1, !tbaa !43
  %17 = icmp ne i8 %16, 0
  br i1 %17, label %27, label %18

18:                                               ; preds = %9
  %19 = load ptr, ptr %2, align 8, !tbaa !23
  %20 = getelementptr inbounds nuw %struct.CallInfo, ptr %19, i32 0, i32 1
  %21 = load ptr, ptr %20, align 8, !tbaa !40
  %22 = getelementptr inbounds nuw %struct.lua_TValue, ptr %21, i32 0, i32 0
  %23 = load ptr, ptr %22, align 8, !tbaa !37
  %24 = getelementptr inbounds nuw %struct.Closure, ptr %23, i32 0, i32 9
  %25 = getelementptr inbounds nuw %struct.anon.1, ptr %24, i32 0, i32 0
  %26 = load ptr, ptr %25, align 8, !tbaa !37
  br label %28

27:                                               ; preds = %9, %1
  br label %28

28:                                               ; preds = %27, %18
  %29 = phi ptr [ %26, %18 ], [ null, %27 ]
  ret ptr %29
}

; Function Attrs: mustprogress uwtable
define dso_local noundef ptr @_Z12lua_setlocalP9lua_Stateii(ptr noundef %0, i32 noundef %1, i32 noundef %2) #0 {
  %4 = alloca ptr, align 8
  %5 = alloca ptr, align 8
  %6 = alloca i32, align 4
  %7 = alloca i32, align 4
  %8 = alloca ptr, align 8
  %9 = alloca i32, align 4
  %10 = alloca ptr, align 8
  %11 = alloca ptr, align 8
  %12 = alloca ptr, align 8
  %13 = alloca ptr, align 8
  %14 = alloca ptr, align 8
  store ptr %0, ptr %5, align 8, !tbaa !4
  store i32 %1, ptr %6, align 4, !tbaa !9
  store i32 %2, ptr %7, align 4, !tbaa !9
  %15 = load i32, ptr %6, align 4, !tbaa !9
  %16 = load ptr, ptr %5, align 8, !tbaa !4
  %17 = getelementptr inbounds nuw %struct.lua_State, ptr %16, i32 0, i32 10
  %18 = load ptr, ptr %17, align 8, !tbaa !11
  %19 = load ptr, ptr %5, align 8, !tbaa !4
  %20 = getelementptr inbounds nuw %struct.lua_State, ptr %19, i32 0, i32 14
  %21 = load ptr, ptr %20, align 8, !tbaa !22
  %22 = ptrtoint ptr %18 to i64
  %23 = ptrtoint ptr %21 to i64
  %24 = sub i64 %22, %23
  %25 = sdiv exact i64 %24, 40
  %26 = trunc i64 %25 to i32
  %27 = icmp uge i32 %15, %26
  br i1 %27, label %28, label %29

28:                                               ; preds = %3
  store ptr null, ptr %4, align 8
  br label %94

29:                                               ; preds = %3
  call void @llvm.lifetime.start.p0(i64 8, ptr %8) #11
  %30 = load ptr, ptr %5, align 8, !tbaa !4
  %31 = getelementptr inbounds nuw %struct.lua_State, ptr %30, i32 0, i32 10
  %32 = load ptr, ptr %31, align 8, !tbaa !11
  %33 = load i32, ptr %6, align 4, !tbaa !9
  %34 = sext i32 %33 to i64
  %35 = sub i64 0, %34
  %36 = getelementptr inbounds %struct.CallInfo, ptr %32, i64 %35
  store ptr %36, ptr %8, align 8, !tbaa !23
  %37 = load ptr, ptr %8, align 8, !tbaa !23
  %38 = getelementptr inbounds nuw %struct.CallInfo, ptr %37, i32 0, i32 5
  %39 = load i32, ptr %38, align 4, !tbaa !24
  %40 = and i32 %39, 4
  %41 = icmp ne i32 %40, 0
  br i1 %41, label %42, label %43

42:                                               ; preds = %29
  store ptr null, ptr %4, align 8
  store i32 1, ptr %9, align 4
  br label %93

43:                                               ; preds = %29
  call void @llvm.lifetime.start.p0(i64 8, ptr %10) #11
  %44 = load ptr, ptr %8, align 8, !tbaa !23
  %45 = call noundef ptr @_ZL11getluaprotoP8CallInfo(ptr noundef %44)
  store ptr %45, ptr %10, align 8, !tbaa !27
  call void @llvm.lifetime.start.p0(i64 8, ptr %11) #11
  %46 = load ptr, ptr %10, align 8, !tbaa !27
  %47 = icmp ne ptr %46, null
  br i1 %47, label %48, label %55

48:                                               ; preds = %43
  %49 = load ptr, ptr %10, align 8, !tbaa !27
  %50 = load i32, ptr %7, align 4, !tbaa !9
  %51 = load ptr, ptr %5, align 8, !tbaa !4
  %52 = load ptr, ptr %8, align 8, !tbaa !23
  %53 = call noundef i32 @_ZL9currentpcP9lua_StateP8CallInfo(ptr noundef %51, ptr noundef %52)
  %54 = call noundef ptr @_Z13luaF_getlocalPK5Protoii(ptr noundef %49, i32 noundef %50, i32 noundef %53)
  br label %56

55:                                               ; preds = %43
  br label %56

56:                                               ; preds = %55, %48
  %57 = phi ptr [ %54, %48 ], [ null, %55 ]
  store ptr %57, ptr %11, align 8, !tbaa !45
  %58 = load ptr, ptr %11, align 8, !tbaa !45
  %59 = icmp ne ptr %58, null
  br i1 %59, label %60, label %76

60:                                               ; preds = %56
  call void @llvm.lifetime.start.p0(i64 8, ptr %12) #11
  %61 = load ptr, ptr %5, align 8, !tbaa !4
  %62 = getelementptr inbounds nuw %struct.lua_State, ptr %61, i32 0, i32 7
  %63 = load ptr, ptr %62, align 8, !tbaa !52
  %64 = getelementptr inbounds %struct.lua_TValue, ptr %63, i64 -1
  store ptr %64, ptr %12, align 8, !tbaa !53
  call void @llvm.lifetime.start.p0(i64 8, ptr %13) #11
  %65 = load ptr, ptr %8, align 8, !tbaa !23
  %66 = getelementptr inbounds nuw %struct.CallInfo, ptr %65, i32 0, i32 0
  %67 = load ptr, ptr %66, align 8, !tbaa !38
  %68 = load ptr, ptr %11, align 8, !tbaa !45
  %69 = getelementptr inbounds nuw %struct.LocVar, ptr %68, i32 0, i32 3
  %70 = load i8, ptr %69, align 8, !tbaa !46
  %71 = zext i8 %70 to i32
  %72 = sext i32 %71 to i64
  %73 = getelementptr inbounds %struct.lua_TValue, ptr %67, i64 %72
  store ptr %73, ptr %13, align 8, !tbaa !53
  %74 = load ptr, ptr %12, align 8, !tbaa !53
  %75 = load ptr, ptr %13, align 8, !tbaa !53
  call void @llvm.memcpy.p0.p0.i64(ptr align 8 %75, ptr align 8 %74, i64 16, i1 false), !tbaa.struct !54
  call void @llvm.lifetime.end.p0(i64 8, ptr %13) #11
  call void @llvm.lifetime.end.p0(i64 8, ptr %12) #11
  br label %76

76:                                               ; preds = %60, %56
  %77 = load ptr, ptr %5, align 8, !tbaa !4
  %78 = getelementptr inbounds nuw %struct.lua_State, ptr %77, i32 0, i32 7
  %79 = load ptr, ptr %78, align 8, !tbaa !52
  %80 = getelementptr inbounds %struct.lua_TValue, ptr %79, i32 -1
  store ptr %80, ptr %78, align 8, !tbaa !52
  call void @llvm.lifetime.start.p0(i64 8, ptr %14) #11
  %81 = load ptr, ptr %11, align 8, !tbaa !45
  %82 = icmp ne ptr %81, null
  br i1 %82, label %83, label %89

83:                                               ; preds = %76
  %84 = load ptr, ptr %11, align 8, !tbaa !45
  %85 = getelementptr inbounds nuw %struct.LocVar, ptr %84, i32 0, i32 0
  %86 = load ptr, ptr %85, align 8, !tbaa !48
  %87 = getelementptr inbounds nuw %struct.TString, ptr %86, i32 0, i32 7
  %88 = getelementptr inbounds [1 x i8], ptr %87, i64 0, i64 0
  br label %90

89:                                               ; preds = %76
  br label %90

90:                                               ; preds = %89, %83
  %91 = phi ptr [ %88, %83 ], [ null, %89 ]
  store ptr %91, ptr %14, align 8, !tbaa !49
  %92 = load ptr, ptr %14, align 8, !tbaa !49
  store ptr %92, ptr %4, align 8
  store i32 1, ptr %9, align 4
  call void @llvm.lifetime.end.p0(i64 8, ptr %14) #11
  call void @llvm.lifetime.end.p0(i64 8, ptr %11) #11
  call void @llvm.lifetime.end.p0(i64 8, ptr %10) #11
  br label %93

93:                                               ; preds = %90, %42
  call void @llvm.lifetime.end.p0(i64 8, ptr %8) #11
  br label %94

94:                                               ; preds = %93, %28
  %95 = load ptr, ptr %4, align 8
  ret ptr %95
}